; Function Attrs: nounwind uwtable
define ptr @l_Lean_initFn____x40_Lean_ReducibilityAttrs___hyg_186____lambda__3___boxed(ptr noundef %0) #2 {
  %2 = load ptr, ptr @l_Lean_initFn____x40_Lean_ReducibilityAttrs___hyg_186____lambda__3___closed__1, align 8, !tbaa !9
  %3 = tail call ptr @l_Lean_RBNode_fold___at_Lean_initFn____x40_Lean_ReducibilityAttrs___hyg_186____spec__1(ptr noundef %2, ptr noundef %0)
  %4 = getelementptr i8, ptr %3, i64 8
  %.val.i = load i64, ptr %4, align 8, !tbaa !16
  %5 = shl i64 %.val.i, 1
  %.not.i3 = icmp eq i64 %5, 0
  br i1 %.not.i3, label %l_Lean_initFn____x40_Lean_ReducibilityAttrs___hyg_186____lambda__3.exit, label %lean_nat_le.exit.i

lean_nat_le.exit.i:                               ; preds = %1
  %6 = and i64 %.val.i, 9223372036854775807
  %7 = icmp eq i64 %6, 0
  %8 = add i64 %5, -1
  %9 = inttoptr i64 %8 to ptr
  %.1.i.i = select i1 %7, ptr inttoptr (i64 1 to ptr), ptr %9
  %10 = or disjoint i64 %5, 1
  %11 = inttoptr i64 %10 to ptr
  %12 = tail call ptr @l_Array_qsort_sort___at_Lean_initFn____x40_Lean_ReducibilityAttrs___hyg_186____spec__2(ptr noundef nonnull %11, ptr noundef nonnull %3, ptr noundef nonnull inttoptr (i64 1 to ptr), ptr noundef nonnull %.1.i.i, ptr nonnull poison, ptr nonnull poison)
  br label %l_Lean_initFn____x40_Lean_ReducibilityAttrs___hyg_186____lambda__3.exit

l_Lean_initFn____x40_Lean_ReducibilityAttrs___hyg_186____lambda__3.exit: ; preds = %1, %lean_nat_le.exit.i
  %.1.i = phi ptr [ %12, %lean_nat_le.exit.i ], [ %3, %1 ]
  %13 = ptrtoint ptr %0 to i64
  %14 = and i64 %13, 1
  %.not = icmp eq i64 %14, 0
  br i1 %.not, label %15, label %lean_dec.exit

15:                                               ; preds = %l_Lean_initFn____x40_Lean_ReducibilityAttrs___hyg_186____lambda__3.exit
  %16 = load i32, ptr %0, align 4, !tbaa !4
  %17 = icmp sgt i32 %16, 1
  br i1 %17, label %18, label %20, !prof !11

18:                                               ; preds = %15
  %19 = add nsw i32 %16, -1
  store i32 %19, ptr %0, align 4, !tbaa !4
  br label %lean_dec.exit

20:                                               ; preds = %15
  %.not.i = icmp eq i32 %16, 0
  br i1 %.not.i, label %lean_dec.exit, label %21

21:                                               ; preds = %20
  tail call void @lean_dec_ref_cold(ptr noundef nonnull %0) #6
  br label %lean_dec.exit

lean_dec.exit:                                    ; preds = %21, %20, %18, %l_Lean_initFn____x40_Lean_ReducibilityAttrs___hyg_186____lambda__3.exit
  ret ptr %.1.i
}